EXPORTS
??0BaseImporter@Assimp@@QAE@ABV01@@Z @1
??0BaseImporter@Assimp@@QAE@XZ @2
??0BaseProcess@Assimp@@QAE@ABV01@@Z @3
??0BaseProcess@Assimp@@QAE@XZ @4
??0CalcTangentsProcess@Assimp@@QAE@ABV01@@Z @5
??0CalcTangentsProcess@Assimp@@QAE@XZ @6
??0CommentRemover@Assimp@@AAE@XZ @7
??0DefaultLogger@Assimp@@AAE@W4LogSeverity@Logger@1@@Z @8
??0DefaultLogger@Assimp@@QAE@ABV01@@Z @9
??0Exporter@Assimp@@QAE@XZ @10
??0FindDegeneratesProcess@Assimp@@QAE@ABV01@@Z @11
??0FindDegeneratesProcess@Assimp@@QAE@XZ @12
??0FindInvalidDataProcess@Assimp@@QAE@ABV01@@Z @13
??0FindInvalidDataProcess@Assimp@@QAE@XZ @14
??0GenFaceNormalsProcess@Assimp@@QAE@ABV01@@Z @15
??0GenFaceNormalsProcess@Assimp@@QAE@XZ @16
??0GenVertexNormalsProcess@Assimp@@QAE@ABV01@@Z @17
??0GenVertexNormalsProcess@Assimp@@QAE@XZ @18
??0IOStream@Assimp@@IAE@XZ @19
??0IOStream@Assimp@@QAE@ABV01@@Z @20
??0IOSystem@Assimp@@QAE@ABV01@@Z @21
??0IOSystem@Assimp@@QAE@XZ @22
??0Importer@Assimp@@QAE@ABV01@@Z @23
??0Importer@Assimp@@QAE@XZ @24
??0JoinVerticesProcess@Assimp@@QAE@ABV01@@Z @25
??0JoinVerticesProcess@Assimp@@QAE@XZ @26
??0LimitBoneWeightsProcess@Assimp@@QAE@ABV01@@Z @27
??0LimitBoneWeightsProcess@Assimp@@QAE@XZ @28
??0LogStream@Assimp@@IAE@XZ @29
??0LogStream@Assimp@@QAE@ABV01@@Z @30
??0Logger@Assimp@@IAE@W4LogSeverity@01@@Z @31
??0Logger@Assimp@@IAE@XZ @32
??0Logger@Assimp@@QAE@ABV01@@Z @33
??0MakeVerboseFormatProcess@Assimp@@QAE@ABV01@@Z @34
??0MakeVerboseFormatProcess@Assimp@@QAE@XZ @35
??0NullLogger@Assimp@@QAE@ABV01@@Z @36
??0NullLogger@Assimp@@QAE@XZ @37
??0PretransformVertices@Assimp@@QAE@ABV01@@Z @38
??0PretransformVertices@Assimp@@QAE@XZ @39
??0ProgressHandler@Assimp@@IAE@XZ @40
??0ProgressHandler@Assimp@@QAE@ABV01@@Z @41
??0RemoveRedundantMatsProcess@Assimp@@QAE@ABV01@@Z @42
??0RemoveRedundantMatsProcess@Assimp@@QAE@XZ @43
??0RemoveVCProcess@Assimp@@QAE@ABV01@@Z @44
??0RemoveVCProcess@Assimp@@QAE@XZ @45
??0ScenePreprocessor@Assimp@@QAE@PAUaiScene@@@Z @46
??0ScenePreprocessor@Assimp@@QAE@XZ @47
??0SortByPTypeProcess@Assimp@@QAE@ABV01@@Z @48
??0SortByPTypeProcess@Assimp@@QAE@XZ @49
??0SplitLargeMeshesProcess_Triangle@Assimp@@QAE@ABV01@@Z @50
??0SplitLargeMeshesProcess_Triangle@Assimp@@QAE@XZ @51
??0SplitLargeMeshesProcess_Vertex@Assimp@@QAE@ABV01@@Z @52
??0SplitLargeMeshesProcess_Vertex@Assimp@@QAE@XZ @53
??0TriangulateProcess@Assimp@@QAE@ABV01@@Z @54
??0TriangulateProcess@Assimp@@QAE@XZ @55
??0VertexTriangleAdjacency@Assimp@@QAE@PAUaiFace@@II_N@Z @56
??0aiMaterial@@QAE@XZ @57
??0aiScene@@QAE@XZ @58
??1BaseImporter@Assimp@@UAE@XZ @59
??1BaseProcess@Assimp@@UAE@XZ @60
??1CalcTangentsProcess@Assimp@@UAE@XZ @61
??1DefaultLogger@Assimp@@EAE@XZ @62
??1Exporter@Assimp@@QAE@XZ @63
??1FindDegeneratesProcess@Assimp@@UAE@XZ @64
??1FindInvalidDataProcess@Assimp@@UAE@XZ @65
??1GenFaceNormalsProcess@Assimp@@UAE@XZ @66
??1GenVertexNormalsProcess@Assimp@@UAE@XZ @67
??1IOStream@Assimp@@UAE@XZ @68
??1IOSystem@Assimp@@UAE@XZ @69
??1Importer@Assimp@@QAE@XZ @70
??1JoinVerticesProcess@Assimp@@UAE@XZ @71
??1LimitBoneWeightsProcess@Assimp@@UAE@XZ @72
??1LogStream@Assimp@@UAE@XZ @73
??1Logger@Assimp@@UAE@XZ @74
??1MakeVerboseFormatProcess@Assimp@@UAE@XZ @75
??1NullLogger@Assimp@@UAE@XZ @76
??1PretransformVertices@Assimp@@UAE@XZ @77
??1ProgressHandler@Assimp@@UAE@XZ @78
??1RemoveRedundantMatsProcess@Assimp@@UAE@XZ @79
??1RemoveVCProcess@Assimp@@UAE@XZ @80
??1SortByPTypeProcess@Assimp@@UAE@XZ @81
??1SplitLargeMeshesProcess_Triangle@Assimp@@UAE@XZ @82
??1SplitLargeMeshesProcess_Vertex@Assimp@@UAE@XZ @83
??1TriangulateProcess@Assimp@@UAE@XZ @84
??1VertexTriangleAdjacency@Assimp@@QAE@XZ @85
??1aiMaterial@@QAE@XZ @86
??1aiScene@@QAE@XZ @87
??2AllocateFromAssimpHeap@Intern@Assimp@@SAPAXI@Z @88
??2AllocateFromAssimpHeap@Intern@Assimp@@SAPAXIABUnothrow_t@std@@@Z @89
??3AllocateFromAssimpHeap@Intern@Assimp@@SAXPAX@Z @90
??4AllocateFromAssimpHeap@Intern@Assimp@@QAEAAU012@ABU012@@Z @91
??4BaseImporter@Assimp@@QAEAAV01@ABV01@@Z @92
??4BaseProcess@Assimp@@QAEAAV01@ABV01@@Z @93
??4CalcTangentsProcess@Assimp@@QAEAAV01@ABV01@@Z @94
??4CommentRemover@Assimp@@QAEAAV01@ABV01@@Z @95
??4DefaultLogger@Assimp@@QAEAAV01@ABV01@@Z @96
??4Exporter@Assimp@@QAEAAV01@ABV01@@Z @97
??4FindDegeneratesProcess@Assimp@@QAEAAV01@ABV01@@Z @98
??4FindInvalidDataProcess@Assimp@@QAEAAV01@ABV01@@Z @99
??4GenFaceNormalsProcess@Assimp@@QAEAAV01@ABV01@@Z @100
??4GenVertexNormalsProcess@Assimp@@QAEAAV01@ABV01@@Z @101
??4IOStream@Assimp@@QAEAAV01@ABV01@@Z @102
??4IOSystem@Assimp@@QAEAAV01@ABV01@@Z @103
??4Importer@Assimp@@QAEAAV01@ABV01@@Z @104
??4JoinVerticesProcess@Assimp@@QAEAAV01@ABV01@@Z @105
??4LimitBoneWeightsProcess@Assimp@@QAEAAV01@ABV01@@Z @106
??4LogStream@Assimp@@QAEAAV01@ABV01@@Z @107
??4Logger@Assimp@@QAEAAV01@ABV01@@Z @108
??4MakeVerboseFormatProcess@Assimp@@QAEAAV01@ABV01@@Z @109
??4NullLogger@Assimp@@QAEAAV01@ABV01@@Z @110
??4PretransformVertices@Assimp@@QAEAAV01@ABV01@@Z @111
??4ProgressHandler@Assimp@@QAEAAV01@ABV01@@Z @112
??4RemoveRedundantMatsProcess@Assimp@@QAEAAV01@ABV01@@Z @113
??4RemoveVCProcess@Assimp@@QAEAAV01@ABV01@@Z @114
??4ScenePreprocessor@Assimp@@QAEAAV01@ABV01@@Z @115
??4SortByPTypeProcess@Assimp@@QAEAAV01@ABV01@@Z @116
??4SplitLargeMeshesProcess_Triangle@Assimp@@QAEAAV01@ABV01@@Z @117
??4SplitLargeMeshesProcess_Vertex@Assimp@@QAEAAV01@ABV01@@Z @118
??4TriangulateProcess@Assimp@@QAEAAV01@ABV01@@Z @119
??4VertexTriangleAdjacency@Assimp@@QAEAAV01@ABV01@@Z @120
??4aiMaterial@@QAEAAU0@ABU0@@Z @121
??_7BaseImporter@Assimp@@6B @122
??_7BaseProcess@Assimp@@6B @123
??_7CalcTangentsProcess@Assimp@@6B @124
??_7DefaultLogger@Assimp@@6B @125
??_7FindDegeneratesProcess@Assimp@@6B @126
??_7FindInvalidDataProcess@Assimp@@6B @127
??_7GenFaceNormalsProcess@Assimp@@6B @128
??_7GenVertexNormalsProcess@Assimp@@6B @129
??_7IOStream@Assimp@@6B @130
??_7IOSystem@Assimp@@6B @131
??_7JoinVerticesProcess@Assimp@@6B @132
??_7LimitBoneWeightsProcess@Assimp@@6B @133
??_7LogStream@Assimp@@6B @134
??_7Logger@Assimp@@6B @135
??_7MakeVerboseFormatProcess@Assimp@@6B @136
??_7NullLogger@Assimp@@6B @137
??_7PretransformVertices@Assimp@@6B @138
??_7ProgressHandler@Assimp@@6B @139
??_7RemoveRedundantMatsProcess@Assimp@@6B @140
??_7RemoveVCProcess@Assimp@@6B @141
??_7SortByPTypeProcess@Assimp@@6B @142
??_7SplitLargeMeshesProcess_Triangle@Assimp@@6B @143
??_7SplitLargeMeshesProcess_Vertex@Assimp@@6B @144
??_7TriangulateProcess@Assimp@@6B @145
??_UAllocateFromAssimpHeap@Intern@Assimp@@SAPAXI@Z @146
??_UAllocateFromAssimpHeap@Intern@Assimp@@SAPAXIABUnothrow_t@std@@@Z @147
??_VAllocateFromAssimpHeap@Intern@Assimp@@SAXPAX@Z @148
?AddBinaryProperty@aiMaterial@@QAE?AW4aiReturn@@PBXIPBDIIW4aiPropertyTypeInfo@@@Z @149
?AddProperty@aiMaterial@@QAE?AW4aiReturn@@PBHIPBDII@Z @150
?AddProperty@aiMaterial@@QAE?AW4aiReturn@@PBMIPBDII@Z @151
?AddProperty@aiMaterial@@QAE?AW4aiReturn@@PBUaiColor3D@@IPBDII@Z @152
?AddProperty@aiMaterial@@QAE?AW4aiReturn@@PBUaiString@@PBDII@Z @153
?AddProperty@aiMaterial@@QAE?AW4aiReturn@@PBUaiUVTransform@@IPBDII@Z @154
?AddProperty@aiMaterial@@QAE?AW4aiReturn@@PBV?$aiColor4t@M@@IPBDII@Z @155
?AddProperty@aiMaterial@@QAE?AW4aiReturn@@PBV?$aiVector3t@M@@IPBDII@Z @156
?ApplyPostProcessing@Importer@Assimp@@QAEPBUaiScene@@I@Z @157
?ApplyTransform@PretransformVertices@Assimp@@AAEXPAUaiMesh@@ABV?$aiMatrix4x4t@M@@@Z @158
?BuildMeshRefCountArray@PretransformVertices@Assimp@@AAEXPAUaiNode@@PAI@Z @159
?BuildWCSMeshes@PretransformVertices@Assimp@@AAEXAAV?$vector@PAUaiMesh@@V?$allocator@PAUaiMesh@@@std@@@std@@PAPAUaiMesh@@IPAUaiNode@@@Z @160
?CheckMagicToken@BaseImporter@Assimp@@SA_NPAVIOSystem@2@ABV?$basic_string@DU?$char_traits@D@std@@V?$allocator@D@2@@std@@PBXIII@Z @161
?Clear@aiMaterial@@QAEXXZ @162
?CollectData@PretransformVertices@Assimp@@AAEXPAUaiScene@@PAUaiNode@@IIPAUaiMesh@@QAIPAI@Z @163
?ComparePaths@IOSystem@Assimp@@QBE_NABV?$basic_string@DU?$char_traits@D@std@@V?$allocator@D@2@@std@@0@Z @164
?ComparePaths@IOSystem@Assimp@@UBE_NPBD0@Z @165
?ComputeAbsoluteTransform@PretransformVertices@Assimp@@AAEXPAUaiNode@@@Z @166
?ConvertToUTF8@BaseImporter@Assimp@@SAXAAV?$vector@DV?$allocator@D@std@@@std@@@Z @167
?ConvertUTF8toISO8859_1@BaseImporter@Assimp@@SAXAAV?$basic_string@DU?$char_traits@D@std@@V?$allocator@D@2@@std@@@Z @168
?CopyPropertyList@aiMaterial@@SAXPAU1@PBU1@@Z @169
?CountNodes@PretransformVertices@Assimp@@AAEIPAUaiNode@@@Z @170
?CountVerticesAndFaces@PretransformVertices@Assimp@@AAEXPAUaiScene@@PAUaiNode@@IIPAI2@Z @171
?EnableInstantRemoval@FindDegeneratesProcess@Assimp@@QAEX_N@Z @172
?Execute@CalcTangentsProcess@Assimp@@MAEXPAUaiScene@@@Z @173
?Execute@FindDegeneratesProcess@Assimp@@UAEXPAUaiScene@@@Z @174
?Execute@FindInvalidDataProcess@Assimp@@UAEXPAUaiScene@@@Z @175
?Execute@GenFaceNormalsProcess@Assimp@@UAEXPAUaiScene@@@Z @176
?Execute@GenVertexNormalsProcess@Assimp@@UAEXPAUaiScene@@@Z @177
?Execute@JoinVerticesProcess@Assimp@@UAEXPAUaiScene@@@Z @178
?Execute@LimitBoneWeightsProcess@Assimp@@UAEXPAUaiScene@@@Z @179
?Execute@MakeVerboseFormatProcess@Assimp@@UAEXPAUaiScene@@@Z @180
?Execute@PretransformVertices@Assimp@@UAEXPAUaiScene@@@Z @181
?Execute@RemoveRedundantMatsProcess@Assimp@@UAEXPAUaiScene@@@Z @182
?Execute@RemoveVCProcess@Assimp@@UAEXPAUaiScene@@@Z @183
?Execute@SortByPTypeProcess@Assimp@@UAEXPAUaiScene@@@Z @184
?Execute@SplitLargeMeshesProcess_Triangle@Assimp@@UAEXPAUaiScene@@@Z @185
?Execute@SplitLargeMeshesProcess_Vertex@Assimp@@UAEXPAUaiScene@@@Z @186
?Execute@TriangulateProcess@Assimp@@UAEXPAUaiScene@@@Z @187
?ExecuteOnMesh@FindDegeneratesProcess@Assimp@@QAEXPAUaiMesh@@@Z @188
?ExecuteOnScene@BaseProcess@Assimp@@QAEXPAVImporter@2@@Z @189
?Exists@IOSystem@Assimp@@QBE_NABV?$basic_string@DU?$char_traits@D@std@@V?$allocator@D@2@@std@@@Z @190
?Export@Exporter@Assimp@@QAE?AW4aiReturn@@PBUaiScene@@ABV?$basic_string@DU?$char_traits@D@std@@V?$allocator@D@2@@std@@1I@Z @191
?Export@Exporter@Assimp@@QAE?AW4aiReturn@@PBUaiScene@@PBD1I@Z @192
?ExportToBlob@Exporter@Assimp@@QAEPBUaiExportDataBlob@@PBUaiScene@@ABV?$basic_string@DU?$char_traits@D@std@@V?$allocator@D@2@@std@@I@Z @193
?ExportToBlob@Exporter@Assimp@@QAEPBUaiExportDataBlob@@PBUaiScene@@PBDI@Z @194
?FreeBlob@Exporter@Assimp@@QAEXXZ @195
?FreeScene@Importer@Assimp@@QAEXXZ @196
?GenMeshFaceNormals@GenFaceNormalsProcess@Assimp@@AAE_NPAUaiMesh@@@Z @197
?GenMeshVertexNormals@GenVertexNormalsProcess@Assimp@@QAE_NPAUaiMesh@@I@Z @198
?Get@aiMaterial@@QBE?AW4aiReturn@@PBDIIAAH@Z @199
?Get@aiMaterial@@QBE?AW4aiReturn@@PBDIIAAM@Z @200
?Get@aiMaterial@@QBE?AW4aiReturn@@PBDIIAAUaiColor3D@@@Z @201
?Get@aiMaterial@@QBE?AW4aiReturn@@PBDIIAAUaiString@@@Z @202
?Get@aiMaterial@@QBE?AW4aiReturn@@PBDIIAAUaiUVTransform@@@Z @203
?Get@aiMaterial@@QBE?AW4aiReturn@@PBDIIAAV?$aiColor4t@M@@@Z @204
?Get@aiMaterial@@QBE?AW4aiReturn@@PBDIIPAHPAI@Z @205
?Get@aiMaterial@@QBE?AW4aiReturn@@PBDIIPAMPAI@Z @206
?GetAdjacentTriangles@VertexTriangleAdjacency@Assimp@@QBEPAII@Z @207
?GetBlob@Exporter@Assimp@@QBEPBUaiExportDataBlob@@XZ @208
?GetDeleteFlags@RemoveVCProcess@Assimp@@QBEIXZ @209
?GetErrorString@Exporter@Assimp@@QBEPBDXZ @210
?GetErrorString@Importer@Assimp@@QBEPBDXZ @211
?GetErrorText@BaseImporter@Assimp@@QBEABV?$basic_string@DU?$char_traits@D@std@@V?$allocator@D@2@@std@@XZ @212
?GetExportFormatCount@Exporter@Assimp@@QBEIXZ @213
?GetExportFormatDescription@Exporter@Assimp@@QBEPBUaiExportFormatDesc@@I@Z @214
?GetExtension@BaseImporter@Assimp@@SA?AV?$basic_string@DU?$char_traits@D@std@@V?$allocator@D@2@@std@@ABV34@@Z @215
?GetExtensionList@BaseImporter@Assimp@@QAEXAAV?$set@V?$basic_string@DU?$char_traits@D@std@@V?$allocator@D@2@@std@@U?$less@V?$basic_string@DU?$char_traits@D@std@@V?$allocator@D@2@@std@@@2@V?$allocator@V?$basic_string@DU?$char_traits@D@std@@V?$allocator@D@2@@std@@@2@@std@@@Z @216
?GetExtensionList@Importer@Assimp@@QBEXAAUaiString@@@Z @217
?GetExtensionList@Importer@Assimp@@QBEXAAV?$basic_string@DU?$char_traits@D@std@@V?$allocator@D@2@@std@@@Z @218
?GetFixedMaterialsString@RemoveRedundantMatsProcess@Assimp@@QBEABV?$basic_string@DU?$char_traits@D@std@@V?$allocator@D@2@@std@@XZ @219
?GetIOHandler@Exporter@Assimp@@QBEPAVIOSystem@2@XZ @220
?GetIOHandler@Importer@Assimp@@QBEPAVIOSystem@2@XZ @221
?GetImporter@Importer@Assimp@@QBEPAVBaseImporter@2@I@Z @222
?GetImporter@Importer@Assimp@@QBEPAVBaseImporter@2@PBD@Z @223
?GetImporterCount@Importer@Assimp@@QBEIXZ @224
?GetImporterIndex@Importer@Assimp@@QBEIPBD@Z @225
?GetImporterInfo@Importer@Assimp@@QBEPBUaiImporterDesc@@I@Z @226
?GetLimit@SplitLargeMeshesProcess_Triangle@Assimp@@QBEIXZ @227
?GetLimit@SplitLargeMeshesProcess_Vertex@Assimp@@QBEIXZ @228
?GetMemoryRequirements@Importer@Assimp@@QBEXAAUaiMemoryInfo@@@Z @229
?GetMeshVFormat@PretransformVertices@Assimp@@AAEIPAUaiMesh@@@Z @230
?GetNumTrianglesPtr@VertexTriangleAdjacency@Assimp@@QAEAAII@Z @231
?GetOrphanedBlob@Exporter@Assimp@@QBEPBUaiExportDataBlob@@XZ @232
?GetOrphanedScene@Importer@Assimp@@QAEPAUaiScene@@XZ @233
?GetProgressHandler@Importer@Assimp@@QBEPAVProgressHandler@2@XZ @234
?GetPropertyBool@Importer@Assimp@@QBE_NPBD_N@Z @235
?GetPropertyFloat@Importer@Assimp@@QBEMPBDM@Z @236
?GetPropertyInteger@Importer@Assimp@@QBEHPBDH@Z @237
?GetPropertyMatrix@Importer@Assimp@@QBE?BV?$aiMatrix4x4t@M@@PBDABV3@@Z @238
?GetPropertyString@Importer@Assimp@@QBE?BV?$basic_string@DU?$char_traits@D@std@@V?$allocator@D@2@@std@@PBDABV34@@Z @239
?GetScene@Importer@Assimp@@QBEPBUaiScene@@XZ @240
?GetSharedData@BaseProcess@Assimp@@QAEPAVSharedPostProcessInfo@2@XZ @241
?GetTexture@aiMaterial@@QBE?AW4aiReturn@@W4aiTextureType@@IPAUaiString@@PAW4aiTextureMapping@@PAIPAMPAW4aiTextureOp@@PAW4aiTextureMapMode@@@Z @242
?GetTextureCount@aiMaterial@@QBEIW4aiTextureType@@@Z @243
?GetThreadID@DefaultLogger@Assimp@@AAEIXZ @244
?GetVFormatList@PretransformVertices@Assimp@@AAEXPAUaiScene@@IAAV?$list@IV?$allocator@I@std@@@std@@@Z @245
?IsActive@CalcTangentsProcess@Assimp@@UBE_NI@Z @246
?IsActive@FindDegeneratesProcess@Assimp@@UBE_NI@Z @247
?IsActive@FindInvalidDataProcess@Assimp@@UBE_NI@Z @248
?IsActive@GenFaceNormalsProcess@Assimp@@UBE_NI@Z @249
?IsActive@GenVertexNormalsProcess@Assimp@@UBE_NI@Z @250
?IsActive@JoinVerticesProcess@Assimp@@UBE_NI@Z @251
?IsActive@LimitBoneWeightsProcess@Assimp@@UBE_NI@Z @252
?IsActive@MakeVerboseFormatProcess@Assimp@@UBE_NI@Z @253
?IsActive@PretransformVertices@Assimp@@UBE_NI@Z @254
?IsActive@RemoveRedundantMatsProcess@Assimp@@UBE_NI@Z @255
?IsActive@RemoveVCProcess@Assimp@@UBE_NI@Z @256
?IsActive@SortByPTypeProcess@Assimp@@UBE_NI@Z @257
?IsActive@SplitLargeMeshesProcess_Triangle@Assimp@@UBE_NI@Z @258
?IsActive@SplitLargeMeshesProcess_Vertex@Assimp@@UBE_NI@Z @259
?IsActive@TriangulateProcess@Assimp@@UBE_NI@Z @260
?IsDefaultIOHandler@Exporter@Assimp@@QBE_NXZ @261
?IsDefaultIOHandler@Importer@Assimp@@QBE_NXZ @262
?IsDefaultProgressHandler@Importer@Assimp@@QBE_NXZ @263
?IsExtensionSupported@Importer@Assimp@@QBE_NABV?$basic_string@DU?$char_traits@D@std@@V?$allocator@D@2@@std@@@Z @264
?IsExtensionSupported@Importer@Assimp@@QBE_NPBD@Z @265
?IsHierarchyKept@PretransformVertices@Assimp@@QBE_NXZ @266
?IsInstantRemoval@FindDegeneratesProcess@Assimp@@QBE_NXZ @267
?KeepHierarchy@PretransformVertices@Assimp@@QAEX_N@Z @268
?MakeIdentityTransform@PretransformVertices@Assimp@@AAEXPAUaiNode@@@Z @269
?MakeVerboseFormat@MakeVerboseFormatProcess@Assimp@@AAE_NPAUaiMesh@@@Z @270
?OnDebug@DefaultLogger@Assimp@@EAEXPBD@Z @271
?OnDebug@NullLogger@Assimp@@UAEXPBD@Z @272
?OnError@DefaultLogger@Assimp@@EAEXPBD@Z @273
?OnError@NullLogger@Assimp@@UAEXPBD@Z @274
?OnInfo@DefaultLogger@Assimp@@EAEXPBD@Z @275
?OnInfo@NullLogger@Assimp@@UAEXPBD@Z @276
?OnWarn@DefaultLogger@Assimp@@EAEXPBD@Z @277
?OnWarn@NullLogger@Assimp@@UAEXPBD@Z @278
?Open@IOSystem@Assimp@@QAEPAVIOStream@2@ABV?$basic_string@DU?$char_traits@D@std@@V?$allocator@D@2@@std@@0@Z @279
?Pimpl@Importer@Assimp@@QAEPAVImporterPimpl@2@XZ @280
?Pimpl@Importer@Assimp@@QBEPBVImporterPimpl@2@XZ @281
?ProcessAnimation@FindInvalidDataProcess@Assimp@@QAEXPAUaiAnimation@@@Z @282
?ProcessAnimation@ScenePreprocessor@Assimp@@IAEXPAUaiAnimation@@@Z @283
?ProcessAnimationChannel@FindInvalidDataProcess@Assimp@@QAEXPAUaiNodeAnim@@@Z @284
?ProcessMesh@CalcTangentsProcess@Assimp@@IAE_NPAUaiMesh@@I@Z @285
?ProcessMesh@FindInvalidDataProcess@Assimp@@QAEHPAUaiMesh@@@Z @286
?ProcessMesh@JoinVerticesProcess@Assimp@@QAEHPAUaiMesh@@I@Z @287
?ProcessMesh@LimitBoneWeightsProcess@Assimp@@QAEXPAUaiMesh@@@Z @288
?ProcessMesh@RemoveVCProcess@Assimp@@AAE_NPAUaiMesh@@@Z @289
?ProcessMesh@ScenePreprocessor@Assimp@@IAEXPAUaiMesh@@@Z @290
?ProcessScene@ScenePreprocessor@Assimp@@QAEXXZ @291
?ReadFile@BaseImporter@Assimp@@QAEPAUaiScene@@PBVImporter@2@ABV?$basic_string@DU?$char_traits@D@std@@V?$allocator@D@2@@std@@PAVIOSystem@2@@Z @292
?ReadFile@Importer@Assimp@@QAEPBUaiScene@@ABV?$basic_string@DU?$char_traits@D@std@@V?$allocator@D@2@@std@@I@Z @293
?ReadFile@Importer@Assimp@@QAEPBUaiScene@@PBDI@Z @294
?ReadFileFromMemory@Importer@Assimp@@QAEPBUaiScene@@PBXIIPBD@Z @295
?RegisterExporter@Exporter@Assimp@@QAE?AW4aiReturn@@ABUExportFormatEntry@12@@Z @296
?RegisterLoader@Importer@Assimp@@QAE?AW4aiReturn@@PAVBaseImporter@2@@Z @297
?RegisterPPStep@Importer@Assimp@@QAE?AW4aiReturn@@PAVBaseProcess@2@@Z @298
?RemoveLineComments@CommentRemover@Assimp@@SAXPBDPADD@Z @299
?RemoveMultiLineComments@CommentRemover@Assimp@@SAXPBD0PADD@Z @300
?RemoveProperty@aiMaterial@@QAE?AW4aiReturn@@PBDII@Z @301
?RequireVerboseFormat@BaseProcess@Assimp@@UBE_NXZ @302
?SearchFileHeaderForToken@BaseImporter@Assimp@@SA_NPAVIOSystem@2@ABV?$basic_string@DU?$char_traits@D@std@@V?$allocator@D@2@@std@@PAPBDII_N@Z @303
?SetDeleteFlags@RemoveVCProcess@Assimp@@QAEXI@Z @304
?SetExtraVerbose@Importer@Assimp@@QAEX_N@Z @305
?SetFixedMaterialsString@RemoveRedundantMatsProcess@Assimp@@QAEXABV?$basic_string@DU?$char_traits@D@std@@V?$allocator@D@2@@std@@@Z @306
?SetIOHandler@Exporter@Assimp@@QAEXPAVIOSystem@2@@Z @307
?SetIOHandler@Importer@Assimp@@QAEXPAVIOSystem@2@@Z @308
?SetLimit@SplitLargeMeshesProcess_Triangle@Assimp@@QAEXI@Z @309
?SetLimit@SplitLargeMeshesProcess_Vertex@Assimp@@QAEXI@Z @310
?SetMaxSmoothAngle@CalcTangentsProcess@Assimp@@QAEXM@Z @311
?SetMaxSmoothAngle@GenVertexNormalsProcess@Assimp@@QAEXM@Z @312
?SetProgressHandler@Importer@Assimp@@QAEXPAVProgressHandler@2@@Z @313
?SetPropertyBool@Importer@Assimp@@QAEXPBD_NPA_N@Z @314
?SetPropertyFloat@Importer@Assimp@@QAEXPBDMPA_N@Z @315
?SetPropertyInteger@Importer@Assimp@@QAEXPBDHPA_N@Z @316
?SetPropertyMatrix@Importer@Assimp@@QAEXPBDABV?$aiMatrix4x4t@M@@PA_N@Z @317
?SetPropertyString@Importer@Assimp@@QAEXPBDABV?$basic_string@DU?$char_traits@D@std@@V?$allocator@D@2@@std@@PA_N@Z @318
?SetScene@ScenePreprocessor@Assimp@@QAEXPAUaiScene@@@Z @319
?SetSharedData@BaseProcess@Assimp@@QAEXPAVSharedPostProcessInfo@2@@Z @320
?SetupProperties@BaseImporter@Assimp@@UAEXPBVImporter@2@@Z @321
?SetupProperties@BaseProcess@Assimp@@UAEXPBVImporter@2@@Z @322
?SetupProperties@CalcTangentsProcess@Assimp@@UAEXPBVImporter@2@@Z @323
?SetupProperties@FindDegeneratesProcess@Assimp@@UAEXPBVImporter@2@@Z @324
?SetupProperties@FindInvalidDataProcess@Assimp@@UAEXPBVImporter@2@@Z @325
?SetupProperties@GenVertexNormalsProcess@Assimp@@UAEXPBVImporter@2@@Z @326
?SetupProperties@LimitBoneWeightsProcess@Assimp@@UAEXPBVImporter@2@@Z @327
?SetupProperties@PretransformVertices@Assimp@@UAEXPBVImporter@2@@Z @328
?SetupProperties@RemoveRedundantMatsProcess@Assimp@@UAEXPBVImporter@2@@Z @329
?SetupProperties@RemoveVCProcess@Assimp@@UAEXPBVImporter@2@@Z @330
?SetupProperties@SortByPTypeProcess@Assimp@@UAEXPBVImporter@2@@Z @331
?SetupProperties@SplitLargeMeshesProcess_Triangle@Assimp@@UAEXPBVImporter@2@@Z @332
?SetupProperties@SplitLargeMeshesProcess_Vertex@Assimp@@UAEXPBVImporter@2@@Z @333
?SimpleExtensionCheck@BaseImporter@Assimp@@SA_NABV?$basic_string@DU?$char_traits@D@std@@V?$allocator@D@2@@std@@PBD11@Z @334
?SplitMesh@SplitLargeMeshesProcess_Triangle@Assimp@@QAEXIPAUaiMesh@@AAV?$vector@U?$pair@PAUaiMesh@@I@std@@V?$allocator@U?$pair@PAUaiMesh@@I@std@@@2@@std@@@Z @335
?SplitMesh@SplitLargeMeshesProcess_Vertex@Assimp@@QAEXIPAUaiMesh@@AAV?$vector@U?$pair@PAUaiMesh@@I@std@@V?$allocator@U?$pair@PAUaiMesh@@I@std@@@2@@std@@@Z @336
?TextFileToBuffer@BaseImporter@Assimp@@SAXPAVIOStream@2@AAV?$vector@DV?$allocator@D@std@@@std@@@Z @337
?TriangulateMesh@TriangulateProcess@Assimp@@QAE_NPAUaiMesh@@@Z @338
?UnregisterExporter@Exporter@Assimp@@QAEXPBD@Z @339
?UnregisterLoader@Importer@Assimp@@QAE?AW4aiReturn@@PAVBaseImporter@2@@Z @340
?UnregisterPPStep@Importer@Assimp@@QAE?AW4aiReturn@@PAVBaseProcess@2@@Z @341
?UpdateNode@SplitLargeMeshesProcess_Triangle@Assimp@@SAXPAUaiNode@@ABV?$vector@U?$pair@PAUaiMesh@@I@std@@V?$allocator@U?$pair@PAUaiMesh@@I@std@@@2@@std@@@Z @342
?ValidateFlags@Importer@Assimp@@QBE_NI@Z @343
?WriteToStreams@DefaultLogger@Assimp@@AAEXPBDW4ErrorSeverity@Logger@2@@Z @344
?attachStream@DefaultLogger@Assimp@@UAE_NPAVLogStream@2@I@Z @345
?attachStream@NullLogger@Assimp@@UAE_NPAVLogStream@2@I@Z @346
?create@DefaultLogger@Assimp@@SAPAVLogger@2@PBDW4LogSeverity@32@IPAVIOSystem@2@@Z @347
?createDefaultStream@LogStream@Assimp@@SAPAV12@W4aiDefaultLogStream@@PBDPAVIOSystem@2@@Z @348
?debug@Logger@Assimp@@QAEXABV?$basic_string@DU?$char_traits@D@std@@V?$allocator@D@2@@std@@@Z @349
?debug@Logger@Assimp@@QAEXPBD@Z @350
?detatchStream@DefaultLogger@Assimp@@UAE_NPAVLogStream@2@I@Z @351
?detatchStream@NullLogger@Assimp@@UAE_NPAVLogStream@2@I@Z @352
?error@Logger@Assimp@@QAEXABV?$basic_string@DU?$char_traits@D@std@@V?$allocator@D@2@@std@@@Z @353
?error@Logger@Assimp@@QAEXPBD@Z @354
?get@DefaultLogger@Assimp@@SAPAVLogger@2@XZ @355
?getLogSeverity@Logger@Assimp@@QBE?AW4LogSeverity@12@XZ @356
?info@Logger@Assimp@@QAEXABV?$basic_string@DU?$char_traits@D@std@@V?$allocator@D@2@@std@@@Z @357
?info@Logger@Assimp@@QAEXPBD@Z @358
?isNullLogger@DefaultLogger@Assimp@@SA_NXZ @359
?kill@DefaultLogger@Assimp@@SAXXZ @360
?m_pLogger@DefaultLogger@Assimp@@0PAVLogger@2@A @361
?s_pNullLogger@DefaultLogger@Assimp@@0VNullLogger@2@A @362
?set@DefaultLogger@Assimp@@SAXPAVLogger@2@@Z @363
?setLogSeverity@Logger@Assimp@@QAEXW4LogSeverity@12@@Z @364
?warn@Logger@Assimp@@QAEXABV?$basic_string@DU?$char_traits@D@std@@V?$allocator@D@2@@std@@@Z @365
?warn@Logger@Assimp@@QAEXPBD@Z @366
aiApplyPostProcessing @367
aiAttachLogStream @368
aiCopyScene @369
aiCreatePropertyStore @370
aiCreateQuaternionFromMatrix @371
aiDecomposeMatrix @372
aiDetachAllLogStreams @373
aiDetachLogStream @374
aiEnableVerboseLogging @375
aiExportScene @376
aiExportSceneEx @377
aiExportSceneToBlob @378
aiFreeScene @379
aiGetCompileFlags @380
aiGetErrorString @381
aiGetExportFormatCount @382
aiGetExportFormatDescription @383
aiGetExtensionList @384
aiGetLegalString @385
aiGetMaterialColor @386
aiGetMaterialFloatArray @387
aiGetMaterialIntegerArray @388
aiGetMaterialProperty @389
aiGetMaterialString @390
aiGetMaterialTexture @391
aiGetMaterialTextureCount @392
aiGetMaterialUVTransform @393
aiGetMemoryRequirements @394
aiGetPredefinedLogStream @395
aiGetVersionMajor @396
aiGetVersionMinor @397
aiGetVersionRevision @398
aiIdentityMatrix3 @399
aiIdentityMatrix4 @400
aiImportFile @401
aiImportFileEx @402
aiImportFileExWithProperties @403
aiImportFileFromMemory @404
aiImportFileFromMemoryWithProperties @405
aiIsExtensionSupported @406
aiMultiplyMatrix3 @407
aiMultiplyMatrix4 @408
aiReleaseExportBlob @409
aiReleaseImport @410
aiReleasePropertyStore @411
aiSetImportPropertyFloat @412
aiSetImportPropertyInteger @413
aiSetImportPropertyMatrix @414
aiSetImportPropertyString @415
aiTransformVecByMatrix3 @416
aiTransformVecByMatrix4 @417
aiTransposeMatrix3 @418
aiTransposeMatrix4 @419